target datalayout = "e-m:e-p270:32:32-p271:32:32-p272:64:64-i64:64-i128:128-f80:128-n8:16:32:64-S128"
target triple = "x86_64-unknown-linux-gnu"

%"class.re2::RE2::Options" = type <{ i64, i32, i8, i8, i8, i8, i8, i8, i8, i8, i8, i8, i8, i8 }>
%"class.std::__cxx11::basic_string" = type { %"struct.std::__cxx11::basic_string<char>::_Alloc_hider", i64, %union.anon }
%"struct.std::__cxx11::basic_string<char>::_Alloc_hider" = type { ptr }
%union.anon = type { i64, [8 x i8] }
%class.LogMessage = type { i8, %"class.std::__cxx11::basic_ostringstream" }
%"class.std::__cxx11::basic_ostringstream" = type { %"class.std::basic_ostream.base", %"class.std::__cxx11::basic_stringbuf", %"class.std::basic_ios" }
%"class.std::basic_ostream.base" = type { ptr }
%"class.std::__cxx11::basic_stringbuf" = type { %"class.std::basic_streambuf", i32, %"class.std::__cxx11::basic_string" }
%"class.std::basic_streambuf" = type { ptr, ptr, ptr, ptr, ptr, ptr, ptr, %"class.std::locale" }
%"class.std::locale" = type { ptr }
%"class.std::basic_ios" = type { %"class.std::ios_base", ptr, i8, i8, ptr, ptr, ptr, ptr }
%"class.std::ios_base" = type { ptr, i64, i64, i32, i32, i32, ptr, %"struct.std::ios_base::_Words", [8 x %"struct.std::ios_base::_Words"], i32, ptr, %"class.std::locale" }
%"struct.std::ios_base::_Words" = type { ptr, i64 }

@.str = private unnamed_addr constant [96 x i8] c"generated/home/dtcxzyw/WorkSpace/Projects/compilers/llvm-opt-benchmark/bench/re2/re2/re2/re2.cc\00", align 1
@.str.1 = private unnamed_addr constant [18 x i8] c"Unknown encoding \00", align 1
@.str.33 = private unnamed_addr constant [2 x i8] c":\00", align 1
@.str.34 = private unnamed_addr constant [3 x i8] c": \00", align 1

; Function Attrs: mustprogress nounwind uwtable
define linkonce_odr noundef zeroext i1 @_ZNK3re23RE27Options8one_lineEv(ptr noundef nonnull align 8 dereferenceable(23) %this) #0 comdat align 2 {
entry:
  %this.addr = alloca ptr, align 8
  store ptr %this, ptr %this.addr, align 8
  %this1 = load ptr, ptr %this.addr, align 8
  %one_line_ = getelementptr inbounds %"class.re2::RE2::Options", ptr %this1, i32 0, i32 12
  %0 = load i8, ptr %one_line_, align 2
  %tobool = trunc i8 %0 to i1
  ret i1 %tobool
}

; Function Attrs: mustprogress nounwind uwtable
define linkonce_odr noundef zeroext i1 @_ZNK3re23RE27Options13word_boundaryEv(ptr noundef nonnull align 8 dereferenceable(23) %this) #0 comdat align 2 {
entry:
  %this.addr = alloca ptr, align 8
  store ptr %this, ptr %this.addr, align 8
  %this1 = load ptr, ptr %this.addr, align 8
  %word_boundary_ = getelementptr inbounds %"class.re2::RE2::Options", ptr %this1, i32 0, i32 11
  %0 = load i8, ptr %word_boundary_, align 1
  %tobool = trunc i8 %0 to i1
  ret i1 %tobool
}

; Function Attrs: mustprogress nounwind uwtable
define linkonce_odr noundef zeroext i1 @_ZNK3re23RE27Options12perl_classesEv(ptr noundef nonnull align 8 dereferenceable(23) %this) #0 comdat align 2 {
entry:
  %this.addr = alloca ptr, align 8
  store ptr %this, ptr %this.addr, align 8
  %this1 = load ptr, ptr %this.addr, align 8
  %perl_classes_ = getelementptr inbounds %"class.re2::RE2::Options", ptr %this1, i32 0, i32 10
  %0 = load i8, ptr %perl_classes_, align 4
  %tobool = trunc i8 %0 to i1
  ret i1 %tobool
}

; Function Attrs: mustprogress nounwind uwtable
define linkonce_odr noundef zeroext i1 @_ZNK3re23RE27Options14case_sensitiveEv(ptr noundef nonnull align 8 dereferenceable(23) %this) #0 comdat align 2 {
entry:
  %this.addr = alloca ptr, align 8
  store ptr %this, ptr %this.addr, align 8
  %this1 = load ptr, ptr %this.addr, align 8
  %case_sensitive_ = getelementptr inbounds %"class.re2::RE2::Options", ptr %this1, i32 0, i32 9
  %0 = load i8, ptr %case_sensitive_, align 1
  %tobool = trunc i8 %0 to i1
  ret i1 %tobool
}

; Function Attrs: mustprogress nounwind uwtable
define linkonce_odr noundef zeroext i1 @_ZNK3re23RE27Options13never_captureEv(ptr noundef nonnull align 8 dereferenceable(23) %this) #0 comdat align 2 {
entry:
  %this.addr = alloca ptr, align 8
  store ptr %this, ptr %this.addr, align 8
  %this1 = load ptr, ptr %this.addr, align 8
  %never_capture_ = getelementptr inbounds %"class.re2::RE2::Options", ptr %this1, i32 0, i32 8
  %0 = load i8, ptr %never_capture_, align 2
  %tobool = trunc i8 %0 to i1
  ret i1 %tobool
}

; Function Attrs: mustprogress nounwind uwtable
define linkonce_odr noundef zeroext i1 @_ZNK3re23RE27Options6dot_nlEv(ptr noundef nonnull align 8 dereferenceable(23) %this) #0 comdat align 2 {
entry:
  %this.addr = alloca ptr, align 8
  store ptr %this, ptr %this.addr, align 8
  %this1 = load ptr, ptr %this.addr, align 8
  %dot_nl_ = getelementptr inbounds %"class.re2::RE2::Options", ptr %this1, i32 0, i32 7
  %0 = load i8, ptr %dot_nl_, align 1
  %tobool = trunc i8 %0 to i1
  ret i1 %tobool
}

; Function Attrs: mustprogress nounwind uwtable
define linkonce_odr noundef zeroext i1 @_ZNK3re23RE27Options8never_nlEv(ptr noundef nonnull align 8 dereferenceable(23) %this) #0 comdat align 2 {
entry:
  %this.addr = alloca ptr, align 8
  store ptr %this, ptr %this.addr, align 8
  %this1 = load ptr, ptr %this.addr, align 8
  %never_nl_ = getelementptr inbounds %"class.re2::RE2::Options", ptr %this1, i32 0, i32 6
  %0 = load i8, ptr %never_nl_, align 8
  %tobool = trunc i8 %0 to i1
  ret i1 %tobool
}

; Function Attrs: mustprogress nounwind uwtable
define linkonce_odr noundef zeroext i1 @_ZNK3re23RE27Options7literalEv(ptr noundef nonnull align 8 dereferenceable(23) %this) #0 comdat align 2 {
entry:
  %this.addr = alloca ptr, align 8
  store ptr %this, ptr %this.addr, align 8
  %this1 = load ptr, ptr %this.addr, align 8
  %literal_ = getelementptr inbounds %"class.re2::RE2::Options", ptr %this1, i32 0, i32 5
  %0 = load i8, ptr %literal_, align 1
  %tobool = trunc i8 %0 to i1
  ret i1 %tobool
}

; Function Attrs: mustprogress nounwind uwtable
define linkonce_odr noundef zeroext i1 @_ZNK3re23RE27Options12posix_syntaxEv(ptr noundef nonnull align 8 dereferenceable(23) %this) #0 comdat align 2 {
entry:
  %this.addr = alloca ptr, align 8
  store ptr %this, ptr %this.addr, align 8
  %this1 = load ptr, ptr %this.addr, align 8
  %posix_syntax_ = getelementptr inbounds %"class.re2::RE2::Options", ptr %this1, i32 0, i32 2
  %0 = load i8, ptr %posix_syntax_, align 4
  %tobool = trunc i8 %0 to i1
  ret i1 %tobool
}

; Function Attrs: mustprogress nounwind uwtable
define linkonce_odr noundef nonnull align 8 dereferenceable(8) ptr @_ZN10LogMessage6streamEv(ptr noundef nonnull align 8 dereferenceable(384) %this) #0 comdat align 2 {
entry:
  %this.addr = alloca ptr, align 8
  store ptr %this, ptr %this.addr, align 8
  %this1 = load ptr, ptr %this.addr, align 8
  %str_ = getelementptr inbounds %class.LogMessage, ptr %this1, i32 0, i32 1
  ret ptr %str_
}

; Function Attrs: mustprogress uwtable
define linkonce_odr void @_ZN10LogMessageC2EPKci(ptr noundef nonnull align 8 dereferenceable(384) %this, ptr noundef %file, i32 noundef %line) unnamed_addr #1 comdat align 2 personality ptr @__gxx_personality_v0 {
entry:
  %this.addr = alloca ptr, align 8
  %file.addr = alloca ptr, align 8
  %line.addr = alloca i32, align 4
  %exn.slot = alloca ptr, align 8
  %ehselector.slot = alloca i32, align 4
  store ptr %this, ptr %this.addr, align 8
  store ptr %file, ptr %file.addr, align 8
  store i32 %line, ptr %line.addr, align 4
  %this1 = load ptr, ptr %this.addr, align 8
  %flushed_ = getelementptr inbounds %class.LogMessage, ptr %this1, i32 0, i32 0
  store i8 0, ptr %flushed_, align 8
  %str_ = getelementptr inbounds %class.LogMessage, ptr %this1, i32 0, i32 1
  call void @_ZNSt7__cxx1119basic_ostringstreamIcSt11char_traitsIcESaIcEEC1Ev(ptr noundef nonnull align 8 dereferenceable(112) %str_)
  %call = invoke noundef nonnull align 8 dereferenceable(8) ptr @_ZN10LogMessage6streamEv(ptr noundef nonnull align 8 dereferenceable(384) %this1)
          to label %invoke.cont unwind label %lpad

invoke.cont:                                      ; preds = %entry
  %0 = load ptr, ptr %file.addr, align 8
  %call3 = invoke noundef nonnull align 8 dereferenceable(8) ptr @_ZStlsISt11char_traitsIcEERSt13basic_ostreamIcT_ES5_PKc(ptr noundef nonnull align 8 dereferenceable(8) %call, ptr noundef %0)
          to label %invoke.cont2 unwind label %lpad

invoke.cont2:                                     ; preds = %invoke.cont
  %call5 = invoke noundef nonnull align 8 dereferenceable(8) ptr @_ZStlsISt11char_traitsIcEERSt13basic_ostreamIcT_ES5_PKc(ptr noundef nonnull align 8 dereferenceable(8) %call3, ptr noundef @.str.33)
          to label %invoke.cont4 unwind label %lpad

invoke.cont4:                                     ; preds = %invoke.cont2
  %1 = load i32, ptr %line.addr, align 4
  %call7 = invoke noundef nonnull align 8 dereferenceable(8) ptr @_ZNSolsEi(ptr noundef nonnull align 8 dereferenceable(8) %call5, i32 noundef %1)
          to label %invoke.cont6 unwind label %lpad

invoke.cont6:                                     ; preds = %invoke.cont4
  %call9 = invoke noundef nonnull align 8 dereferenceable(8) ptr @_ZStlsISt11char_traitsIcEERSt13basic_ostreamIcT_ES5_PKc(ptr noundef nonnull align 8 dereferenceable(8) %call7, ptr noundef @.str.34)
          to label %invoke.cont8 unwind label %lpad

invoke.cont8:                                     ; preds = %invoke.cont6
  ret void

lpad:                                             ; preds = %invoke.cont6, %invoke.cont4, %invoke.cont2, %invoke.cont, %entry
  %2 = landingpad { ptr, i32 }
          cleanup
  %3 = extractvalue { ptr, i32 } %2, 0
  store ptr %3, ptr %exn.slot, align 8
  %4 = extractvalue { ptr, i32 } %2, 1
  store i32 %4, ptr %ehselector.slot, align 4
  call void @_ZNSt7__cxx1119basic_ostringstreamIcSt11char_traitsIcESaIcEED1Ev(ptr noundef nonnull align 8 dereferenceable(112) %str_) #16
  br label %eh.resume

eh.resume:                                        ; preds = %lpad
  %exn = load ptr, ptr %exn.slot, align 8
  %sel = load i32, ptr %ehselector.slot, align 4
  %lpad.val = insertvalue { ptr, i32 } poison, ptr %exn, 0
  %lpad.val10 = insertvalue { ptr, i32 } %lpad.val, i32 %sel, 1
  resume { ptr, i32 } %lpad.val10
}

; Function Attrs: mustprogress nounwind uwtable
define linkonce_odr noundef zeroext i1 @_ZNK3re23RE27Options10log_errorsEv(ptr noundef nonnull align 8 dereferenceable(23) %this) #0 comdat align 2 {
entry:
  %this.addr = alloca ptr, align 8
  store ptr %this, ptr %this.addr, align 8
  %this1 = load ptr, ptr %this.addr, align 8
  %log_errors_ = getelementptr inbounds %"class.re2::RE2::Options", ptr %this1, i32 0, i32 4
  %0 = load i8, ptr %log_errors_, align 2
  %tobool = trunc i8 %0 to i1
  ret i1 %tobool
}

; Function Attrs: mustprogress nounwind uwtable
define linkonce_odr noundef i32 @_ZNK3re23RE27Options8encodingEv(ptr noundef nonnull align 8 dereferenceable(23) %this) #0 comdat align 2 {
entry:
  %this.addr = alloca ptr, align 8
  store ptr %this, ptr %this.addr, align 8
  %this1 = load ptr, ptr %this.addr, align 8
  %encoding_ = getelementptr inbounds %"class.re2::RE2::Options", ptr %this1, i32 0, i32 1
  %0 = load i32, ptr %encoding_, align 8
  ret i32 %0
}

; Function Attrs: mustprogress uwtable
define noundef i32 @_ZNK3re23RE27Options10ParseFlagsEv(ptr noundef nonnull align 8 dereferenceable(23) %this) #1 align 2 personality ptr @__gxx_personality_v0 {
entry:
  %this.addr = alloca ptr, align 8
  %flags = alloca i32, align 4
  %ref.tmp = alloca %class.LogMessage, align 8
  %exn.slot = alloca ptr, align 8
  %ehselector.slot = alloca i32, align 4
  store ptr %this, ptr %this.addr, align 8
  %this1 = load ptr, ptr %this.addr, align 8
  store i32 4, ptr %flags, align 4
  %call = call noundef i32 @_ZNK3re23RE27Options8encodingEv(ptr noundef nonnull align 8 dereferenceable(23) %this1)
  switch i32 %call, label %sw.default [
    i32 1, label %sw.bb
    i32 2, label %sw.bb10
  ]

sw.default:                                       ; preds = %entry
  %call2 = call noundef zeroext i1 @_ZNK3re23RE27Options10log_errorsEv(ptr noundef nonnull align 8 dereferenceable(23) %this1)
  br i1 %call2, label %if.then, label %if.end

if.then:                                          ; preds = %sw.default
  call void @_ZN10LogMessageC2EPKci(ptr noundef nonnull align 8 dereferenceable(384) %ref.tmp, ptr noundef @.str, i32 noundef 161)
  %call3 = invoke noundef nonnull align 8 dereferenceable(8) ptr @_ZN10LogMessage6streamEv(ptr noundef nonnull align 8 dereferenceable(384) %ref.tmp)
          to label %invoke.cont unwind label %lpad

invoke.cont:                                      ; preds = %if.then
  %call5 = invoke noundef nonnull align 8 dereferenceable(8) ptr @_ZStlsISt11char_traitsIcEERSt13basic_ostreamIcT_ES5_PKc(ptr noundef nonnull align 8 dereferenceable(8) %call3, ptr noundef @.str.1)
          to label %invoke.cont4 unwind label %lpad

invoke.cont4:                                     ; preds = %invoke.cont
  %call7 = invoke noundef i32 @_ZNK3re23RE27Options8encodingEv(ptr noundef nonnull align 8 dereferenceable(23) %this1)
          to label %invoke.cont6 unwind label %lpad

invoke.cont6:                                     ; preds = %invoke.cont4
  %call9 = invoke noundef nonnull align 8 dereferenceable(8) ptr @_ZNSolsEi(ptr noundef nonnull align 8 dereferenceable(8) %call5, i32 noundef %call7)
          to label %invoke.cont8 unwind label %lpad

invoke.cont8:                                     ; preds = %invoke.cont6
  call void @_ZN10LogMessageD2Ev(ptr noundef nonnull align 8 dereferenceable(384) %ref.tmp) #16
  br label %if.end

lpad:                                             ; preds = %invoke.cont6, %invoke.cont4, %invoke.cont, %if.then
  %0 = landingpad { ptr, i32 }
          cleanup
  %1 = extractvalue { ptr, i32 } %0, 0
  store ptr %1, ptr %exn.slot, align 8
  %2 = extractvalue { ptr, i32 } %0, 1
  store i32 %2, ptr %ehselector.slot, align 4
  call void @_ZN10LogMessageD2Ev(ptr noundef nonnull align 8 dereferenceable(384) %ref.tmp) #16
  br label %eh.resume

if.end:                                           ; preds = %invoke.cont8, %sw.default
  br label %sw.epilog

sw.bb:                                            ; preds = %entry
  br label %sw.epilog

sw.bb10:                                          ; preds = %entry
  %3 = load i32, ptr %flags, align 4
  %or = or i32 %3, 32
  store i32 %or, ptr %flags, align 4
  br label %sw.epilog

sw.epilog:                                        ; preds = %sw.bb10, %sw.bb, %if.end
  %call11 = call noundef zeroext i1 @_ZNK3re23RE27Options12posix_syntaxEv(ptr noundef nonnull align 8 dereferenceable(23) %this1)
  br i1 %call11, label %if.end14, label %if.then12

if.then12:                                        ; preds = %sw.epilog
  %4 = load i32, ptr %flags, align 4
  %or13 = or i32 %4, 1940
  store i32 %or13, ptr %flags, align 4
  br label %if.end14

if.end14:                                         ; preds = %if.then12, %sw.epilog
  %call15 = call noundef zeroext i1 @_ZNK3re23RE27Options7literalEv(ptr noundef nonnull align 8 dereferenceable(23) %this1)
  br i1 %call15, label %if.then16, label %if.end18

if.then16:                                        ; preds = %if.end14
  %5 = load i32, ptr %flags, align 4
  %or17 = or i32 %5, 2
  store i32 %or17, ptr %flags, align 4
  br label %if.end18

if.end18:                                         ; preds = %if.then16, %if.end14
  %call19 = call noundef zeroext i1 @_ZNK3re23RE27Options8never_nlEv(ptr noundef nonnull align 8 dereferenceable(23) %this1)
  br i1 %call19, label %if.then20, label %if.end22

if.then20:                                        ; preds = %if.end18
  %6 = load i32, ptr %flags, align 4
  %or21 = or i32 %6, 2048
  store i32 %or21, ptr %flags, align 4
  br label %if.end22

if.end22:                                         ; preds = %if.then20, %if.end18
  %call23 = call noundef zeroext i1 @_ZNK3re23RE27Options6dot_nlEv(ptr noundef nonnull align 8 dereferenceable(23) %this1)
  br i1 %call23, label %if.then24, label %if.end26

if.then24:                                        ; preds = %if.end22
  %7 = load i32, ptr %flags, align 4
  %or25 = or i32 %7, 8
  store i32 %or25, ptr %flags, align 4
  br label %if.end26

if.end26:                                         ; preds = %if.then24, %if.end22
  %call27 = call noundef zeroext i1 @_ZNK3re23RE27Options13never_captureEv(ptr noundef nonnull align 8 dereferenceable(23) %this1)
  br i1 %call27, label %if.then28, label %if.end30

if.then28:                                        ; preds = %if.end26
  %8 = load i32, ptr %flags, align 4
  %or29 = or i32 %8, 4096
  store i32 %or29, ptr %flags, align 4
  br label %if.end30

if.end30:                                         ; preds = %if.then28, %if.end26
  %call31 = call noundef zeroext i1 @_ZNK3re23RE27Options14case_sensitiveEv(ptr noundef nonnull align 8 dereferenceable(23) %this1)
  br i1 %call31, label %if.end34, label %if.then32

if.then32:                                        ; preds = %if.end30
  %9 = load i32, ptr %flags, align 4
  %or33 = or i32 %9, 1
  store i32 %or33, ptr %flags, align 4
  br label %if.end34

if.end34:                                         ; preds = %if.then32, %if.end30
  %call35 = call noundef zeroext i1 @_ZNK3re23RE27Options12perl_classesEv(ptr noundef nonnull align 8 dereferenceable(23) %this1)
  br i1 %call35, label %if.then36, label %if.end38

if.then36:                                        ; preds = %if.end34
  %10 = load i32, ptr %flags, align 4
  %or37 = or i32 %10, 128
  store i32 %or37, ptr %flags, align 4
  br label %if.end38

if.end38:                                         ; preds = %if.then36, %if.end34
  %call39 = call noundef zeroext i1 @_ZNK3re23RE27Options13word_boundaryEv(ptr noundef nonnull align 8 dereferenceable(23) %this1)
  br i1 %call39, label %if.then40, label %if.end42

if.then40:                                        ; preds = %if.end38
  %11 = load i32, ptr %flags, align 4
  %or41 = or i32 %11, 256
  store i32 %or41, ptr %flags, align 4
  br label %if.end42

if.end42:                                         ; preds = %if.then40, %if.end38
  %call43 = call noundef zeroext i1 @_ZNK3re23RE27Options8one_lineEv(ptr noundef nonnull align 8 dereferenceable(23) %this1)
  br i1 %call43, label %if.then44, label %if.end46

if.then44:                                        ; preds = %if.end42
  %12 = load i32, ptr %flags, align 4
  %or45 = or i32 %12, 16
  store i32 %or45, ptr %flags, align 4
  br label %if.end46

if.end46:                                         ; preds = %if.then44, %if.end42
  %13 = load i32, ptr %flags, align 4
  ret i32 %13

eh.resume:                                        ; preds = %lpad
  %exn = load ptr, ptr %exn.slot, align 8
  %sel = load i32, ptr %ehselector.slot, align 4
  %lpad.val = insertvalue { ptr, i32 } poison, ptr %exn, 0
  %lpad.val47 = insertvalue { ptr, i32 } %lpad.val, i32 %sel, 1
  resume { ptr, i32 } %lpad.val47
}