; Function Attrs: mustprogress uwtable
define noundef range(i32 4, 8192) i32 @_ZNK3re23RE27Options10ParseFlagsEv(ptr noundef nonnull readonly align 8 captures(none) dereferenceable(23) %this) local_unnamed_addr #2 align 2 personality ptr @__gxx_personality_v0 {
entry:
  %ref.tmp = alloca %class.LogMessage, align 8
  %encoding_.i = getelementptr inbounds nuw i8, ptr %this, i64 8
  %0 = load i32, ptr %encoding_.i, align 8
  switch i32 %0, label %sw.default [
    i32 1, label %sw.epilog
    i32 2, label %sw.bb10
  ]

sw.default:                                       ; preds = %entry
  %log_errors_.i = getelementptr inbounds nuw i8, ptr %this, i64 14
  %1 = load i8, ptr %log_errors_.i, align 2
  %tobool.i = trunc i8 %1 to i1
  br i1 %tobool.i, label %if.then, label %sw.epilog

if.then:                                          ; preds = %sw.default
  store i8 0, ptr %ref.tmp, align 8
  %str_.i = getelementptr inbounds nuw i8, ptr %ref.tmp, i64 8
  call void @_ZNSt7__cxx1119basic_ostringstreamIcSt11char_traitsIcESaIcEEC1Ev(ptr noundef nonnull align 8 dereferenceable(112) %str_.i)
  %call3.i = invoke noundef nonnull align 8 dereferenceable(8) ptr @_ZStlsISt11char_traitsIcEERSt13basic_ostreamIcT_ES5_PKc(ptr noundef nonnull align 8 dereferenceable(8) %str_.i, ptr noundef nonnull @.str)
          to label %invoke.cont2.i unwind label %lpad.i

invoke.cont2.i:                                   ; preds = %if.then
  %call5.i = invoke noundef nonnull align 8 dereferenceable(8) ptr @_ZStlsISt11char_traitsIcEERSt13basic_ostreamIcT_ES5_PKc(ptr noundef nonnull align 8 dereferenceable(8) %call3.i, ptr noundef nonnull @.str.33)
          to label %invoke.cont4.i unwind label %lpad.i

invoke.cont4.i:                                   ; preds = %invoke.cont2.i
  %call7.i = invoke noundef nonnull align 8 dereferenceable(8) ptr @_ZNSolsEi(ptr noundef nonnull align 8 dereferenceable(8) %call5.i, i32 noundef 161)
          to label %invoke.cont6.i unwind label %lpad.i

invoke.cont6.i:                                   ; preds = %invoke.cont4.i
  %call9.i = invoke noundef nonnull align 8 dereferenceable(8) ptr @_ZStlsISt11char_traitsIcEERSt13basic_ostreamIcT_ES5_PKc(ptr noundef nonnull align 8 dereferenceable(8) %call7.i, ptr noundef nonnull @.str.34)
          to label %_ZN10LogMessageC2EPKci.exit unwind label %lpad.i

common.resume:                                    ; preds = %lpad, %lpad.i
  %common.resume.op = phi { ptr, i32 } [ %2, %lpad.i ], [ %4, %lpad ]
  resume { ptr, i32 } %common.resume.op

lpad.i:                                           ; preds = %invoke.cont6.i, %invoke.cont4.i, %invoke.cont2.i, %if.then
  %2 = landingpad { ptr, i32 }
          cleanup
  call void @_ZNSt7__cxx1119basic_ostringstreamIcSt11char_traitsIcESaIcEED1Ev(ptr noundef nonnull align 8 dereferenceable(112) %str_.i) #30
  br label %common.resume

_ZN10LogMessageC2EPKci.exit:                      ; preds = %invoke.cont6.i
  %call5 = invoke noundef nonnull align 8 dereferenceable(8) ptr @_ZStlsISt11char_traitsIcEERSt13basic_ostreamIcT_ES5_PKc(ptr noundef nonnull align 8 dereferenceable(8) %str_.i, ptr noundef nonnull @.str.1)
          to label %invoke.cont4 unwind label %lpad

invoke.cont4:                                     ; preds = %_ZN10LogMessageC2EPKci.exit
  %3 = load i32, ptr %encoding_.i, align 8
  %call9 = invoke noundef nonnull align 8 dereferenceable(8) ptr @_ZNSolsEi(ptr noundef nonnull align 8 dereferenceable(8) %call5, i32 noundef %3)
          to label %invoke.cont8 unwind label %lpad

invoke.cont8:                                     ; preds = %invoke.cont4
  call void @_ZN10LogMessageD2Ev(ptr noundef nonnull align 8 dereferenceable(384) %ref.tmp) #30
  br label %sw.epilog

lpad:                                             ; preds = %invoke.cont4, %_ZN10LogMessageC2EPKci.exit
  %4 = landingpad { ptr, i32 }
          cleanup
  call void @_ZN10LogMessageD2Ev(ptr noundef nonnull align 8 dereferenceable(384) %ref.tmp) #30
  br label %common.resume

sw.bb10:                                          ; preds = %entry
  br label %sw.epilog

sw.epilog:                                        ; preds = %entry, %sw.default, %invoke.cont8, %sw.bb10
  %flags.0 = phi i32 [ 4, %invoke.cont8 ], [ 4, %sw.default ], [ 36, %sw.bb10 ], [ 4, %entry ]
  %posix_syntax_.i = getelementptr inbounds nuw i8, ptr %this, i64 12
  %5 = load i8, ptr %posix_syntax_.i, align 4
  %tobool.i13 = trunc i8 %5 to i1
  %or13 = or i32 %flags.0, 1940
  %spec.select = select i1 %tobool.i13, i32 %flags.0, i32 %or13
  %literal_.i = getelementptr inbounds nuw i8, ptr %this, i64 15
  %6 = load i8, ptr %literal_.i, align 1
  %tobool.i14 = trunc i8 %6 to i1
  %or17 = or disjoint i32 %spec.select, 2
  %flags.2 = select i1 %tobool.i14, i32 %or17, i32 %spec.select
  %never_nl_.i = getelementptr inbounds nuw i8, ptr %this, i64 16
  %7 = load i8, ptr %never_nl_.i, align 8
  %tobool.i15 = trunc i8 %7 to i1
  %or21 = or i32 %flags.2, 2048
  %flags.3 = select i1 %tobool.i15, i32 %or21, i32 %flags.2
  %dot_nl_.i = getelementptr inbounds nuw i8, ptr %this, i64 17
  %8 = load i8, ptr %dot_nl_.i, align 1
  %tobool.i16 = trunc i8 %8 to i1
  %or25 = or i32 %flags.3, 8
  %flags.4 = select i1 %tobool.i16, i32 %or25, i32 %flags.3
  %never_capture_.i = getelementptr inbounds nuw i8, ptr %this, i64 18
  %9 = load i8, ptr %never_capture_.i, align 2
  %tobool.i17 = trunc i8 %9 to i1
  %or29 = or i32 %flags.4, 4096
  %flags.5 = select i1 %tobool.i17, i32 %or29, i32 %flags.4
  %case_sensitive_.i = getelementptr inbounds nuw i8, ptr %this, i64 19
  %10 = load i8, ptr %case_sensitive_.i, align 1
  %11 = and i8 %10, 1
  %12 = xor i8 %11, 1
  %or33 = zext nneg i8 %12 to i32
  %flags.6 = or i32 %flags.5, %or33
  %perl_classes_.i = getelementptr inbounds nuw i8, ptr %this, i64 20
  %13 = load i8, ptr %perl_classes_.i, align 4
  %tobool.i19 = trunc i8 %13 to i1
  %or37 = or i32 %flags.6, 128
  %flags.7 = select i1 %tobool.i19, i32 %or37, i32 %flags.6
  %word_boundary_.i = getelementptr inbounds nuw i8, ptr %this, i64 21
  %14 = load i8, ptr %word_boundary_.i, align 1
  %tobool.i20 = trunc i8 %14 to i1
  %or41 = or i32 %flags.7, 256
  %flags.8 = select i1 %tobool.i20, i32 %or41, i32 %flags.7
  %one_line_.i = getelementptr inbounds nuw i8, ptr %this, i64 22
  %15 = load i8, ptr %one_line_.i, align 2
  %tobool.i21 = trunc i8 %15 to i1
  %or45 = or i32 %flags.8, 16
  %flags.9 = select i1 %tobool.i21, i32 %or45, i32 %flags.8
  ret i32 %flags.9
}